target datalayout = "e-m:e-p270:32:32-p271:32:32-p272:64:64-i64:64-i128:128-f80:128-n8:16:32:64-S128"
target triple = "x86_64-pc-linux-gnu"

%struct.redisObject = type { i32, i32, ptr }
%struct.dict = type { ptr, [2 x ptr], [2 x i64], i64, i16, [2 x i8], i16, [0 x ptr] }

@.str.1 = private unnamed_addr constant [8 x i8] c"t_set.c\00", align 1
@.str.3 = private unnamed_addr constant [21 x i8] c"Unknown set encoding\00", align 1

; Function Attrs: nounwind uwtable
define dso_local i64 @setTypeSize(ptr noundef %0) #0 {
  %2 = alloca i64, align 8
  %3 = alloca ptr, align 8
  store ptr %0, ptr %3, align 8, !tbaa !41
  %4 = load ptr, ptr %3, align 8, !tbaa !41
  %5 = load i32, ptr %4, align 8
  %6 = lshr i32 %5, 4
  %7 = and i32 %6, 15
  %8 = icmp eq i32 %7, 2
  br i1 %8, label %9, label %23

9:                                                ; preds = %1
  %10 = load ptr, ptr %3, align 8, !tbaa !41
  %11 = getelementptr inbounds nuw %struct.redisObject, ptr %10, i32 0, i32 2
  %12 = load ptr, ptr %11, align 8, !tbaa !43
  %13 = getelementptr inbounds nuw %struct.dict, ptr %12, i32 0, i32 2
  %14 = getelementptr inbounds [2 x i64], ptr %13, i64 0, i64 0
  %15 = load i64, ptr %14, align 8, !tbaa !10
  %16 = load ptr, ptr %3, align 8, !tbaa !41
  %17 = getelementptr inbounds nuw %struct.redisObject, ptr %16, i32 0, i32 2
  %18 = load ptr, ptr %17, align 8, !tbaa !43
  %19 = getelementptr inbounds nuw %struct.dict, ptr %18, i32 0, i32 2
  %20 = getelementptr inbounds [2 x i64], ptr %19, i64 0, i64 1
  %21 = load i64, ptr %20, align 8, !tbaa !10
  %22 = add i64 %15, %21
  store i64 %22, ptr %2, align 8
  br label %47

23:                                               ; preds = %1
  %24 = load ptr, ptr %3, align 8, !tbaa !41
  %25 = load i32, ptr %24, align 8
  %26 = lshr i32 %25, 4
  %27 = and i32 %26, 15
  %28 = icmp eq i32 %27, 6
  br i1 %28, label %29, label %35

29:                                               ; preds = %23
  %30 = load ptr, ptr %3, align 8, !tbaa !41
  %31 = getelementptr inbounds nuw %struct.redisObject, ptr %30, i32 0, i32 2
  %32 = load ptr, ptr %31, align 8, !tbaa !43
  %33 = call i32 @intsetLen(ptr noundef %32)
  %34 = zext i32 %33 to i64
  store i64 %34, ptr %2, align 8
  br label %47

35:                                               ; preds = %23
  %36 = load ptr, ptr %3, align 8, !tbaa !41
  %37 = load i32, ptr %36, align 8
  %38 = lshr i32 %37, 4
  %39 = and i32 %38, 15
  %40 = icmp eq i32 %39, 11
  br i1 %40, label %41, label %46

41:                                               ; preds = %35
  %42 = load ptr, ptr %3, align 8, !tbaa !41
  %43 = getelementptr inbounds nuw %struct.redisObject, ptr %42, i32 0, i32 2
  %44 = load ptr, ptr %43, align 8, !tbaa !43
  %45 = call i64 @lpLength(ptr noundef %44)
  store i64 %45, ptr %2, align 8
  br label %47

46:                                               ; preds = %35
  call void (ptr, i32, ptr, ...) @_serverPanic(ptr noundef @.str.1, i32 noundef 471, ptr noundef @.str.3)
  call void @abort() #11
  unreachable

47:                                               ; preds = %41, %29, %9
  %48 = load i64, ptr %2, align 8
  ret i64 %48
}

; Function Attrs: nounwind uwtable
define dso_local void @setTypeConvert(ptr noundef %0, i32 noundef %1) #0 {
  %3 = alloca ptr, align 8
  %4 = alloca i32, align 4
  store ptr %0, ptr %3, align 8, !tbaa !41
  store i32 %1, ptr %4, align 4, !tbaa !45
  %5 = load ptr, ptr %3, align 8, !tbaa !41
  %6 = load i32, ptr %4, align 4, !tbaa !45
  %7 = load ptr, ptr %3, align 8, !tbaa !41
  %8 = call i64 @setTypeSize(ptr noundef %7)
  %9 = call i32 @setTypeConvertAndExpand(ptr noundef %5, i32 noundef %6, i64 noundef %8, i32 noundef 1)
  ret void
}