; Function Attrs: nounwind uwtable
define dso_local void @setTypeConvert(ptr noundef %0, i32 noundef %1) local_unnamed_addr #0 {
  %3 = load i32, ptr %0, align 8
  %4 = lshr i32 %3, 4
  %5 = and i32 %4, 15
  switch i32 %5, label %23 [
    i32 2, label %6
    i32 6, label %14
    i32 11, label %19
  ]

6:                                                ; preds = %2
  %7 = getelementptr inbounds nuw i8, ptr %0, i64 8
  %8 = load ptr, ptr %7, align 8, !tbaa !38
  %9 = getelementptr inbounds nuw i8, ptr %8, i64 24
  %10 = load i64, ptr %9, align 8, !tbaa !50
  %11 = getelementptr inbounds nuw i8, ptr %8, i64 32
  %12 = load i64, ptr %11, align 8, !tbaa !50
  %13 = add i64 %12, %10
  br label %setTypeSize.exit

14:                                               ; preds = %2
  %15 = getelementptr inbounds nuw i8, ptr %0, i64 8
  %16 = load ptr, ptr %15, align 8, !tbaa !38
  %17 = tail call i32 @intsetLen(ptr noundef %16) #10
  %18 = zext i32 %17 to i64
  br label %setTypeSize.exit

19:                                               ; preds = %2
  %20 = getelementptr inbounds nuw i8, ptr %0, i64 8
  %21 = load ptr, ptr %20, align 8, !tbaa !38
  %22 = tail call i64 @lpLength(ptr noundef %21) #10
  br label %setTypeSize.exit

23:                                               ; preds = %2
  tail call void (ptr, i32, ptr, ...) @_serverPanic(ptr noundef nonnull @.str.1, i32 noundef 471, ptr noundef nonnull @.str.3) #10
  tail call void @abort() #11
  unreachable

setTypeSize.exit:                                 ; preds = %6, %14, %19
  %.0.i = phi i64 [ %13, %6 ], [ %18, %14 ], [ %22, %19 ]
  %24 = tail call i32 @setTypeConvertAndExpand(ptr noundef nonnull %0, i32 noundef %1, i64 noundef %.0.i, i32 noundef 1)
  ret void
}